Certificate:
    Data:
        Version: 3 (0x2)
        Serial Number:
            cf:30:3e:62:79:54:ec:a3:97:27:b1:76:e7:17:43:8f
        Signature Algorithm: sha256WithRSAEncryption
        Issuer: CN=EasyConfigPro-CA
        Validity
            Not Before: Feb 14 19:21:06 2026 GMT
            Not After : May 19 19:21:06 2028 GMT
        Subject: CN=pelumodi
        Subject Public Key Info:
            Public Key Algorithm: rsaEncryption
                Public-Key: (2048 bit)
                Modulus:
                    00:bf:e1:bf:6f:7b:0a:03:31:0d:39:f9:fe:64:01:
                    80:57:a1:a7:35:27:9b:4e:88:b2:a9:2a:ec:10:07:
                    1e:5c:e6:a7:d6:85:c1:4c:2f:4b:cb:a0:d7:5b:df:
                    dc:83:a0:53:3f:71:7c:7f:ff:df:07:cf:89:af:e9:
                    d6:85:6f:35:67:e5:0a:74:d5:09:98:cd:e4:49:1f:
                    10:d3:2f:41:02:e6:7a:69:c3:fb:0f:65:78:71:f2:
                    84:db:ae:40:39:22:5f:05:86:e9:36:8a:55:a0:47:
                    bf:8d:f8:22:38:db:24:0f:2c:e6:1d:ed:84:8b:c6:
                    e2:3d:cf:ee:db:26:1b:8d:57:46:2b:34:0b:da:cb:
                    6a:2b:20:7d:ae:d8:dd:32:a2:9a:6c:14:a3:6d:58:
                    8d:a2:8d:8e:26:1b:72:f4:2c:ef:53:98:79:03:fb:
                    18:be:f4:99:82:d3:34:5f:92:5e:41:26:18:59:ee:
                    7a:1a:0d:a6:1b:a3:c0:d9:d1:2c:58:69:27:2e:94:
                    88:56:c6:45:91:ba:0f:2a:62:22:10:66:c2:83:e4:
                    59:1c:53:ca:ce:c1:c2:7b:d8:8e:c2:5f:98:62:5c:
                    b7:0a:e3:a7:00:a2:7b:48:c1:81:62:b8:b9:08:b3:
                    0d:99:42:87:bb:ba:bd:9f:87:62:03:88:e0:c0:de:
                    ae:e7
                Exponent: 65537 (0x10001)
        X509v3 extensions:
            X509v3 Basic Constraints: 
                CA:FALSE
            X509v3 Subject Key Identifier: 
                DD:93:91:E4:B9:92:72:B4:43:F6:A5:1F:C6:59:9D:B7:13:2C:62:B5
            X509v3 Authority Key Identifier: 
                keyid:CE:A4:70:56:BA:53:64:15:1E:8F:4E:D2:2D:8B:12:C5:3E:BC:12:36
                DirName:/CN=EasyConfigPro-CA
                serial:3F:D2:C9:01:39:31:91:4E:38:8A:E0:FE:20:03:D6:17:55:A5:8F:EC
            X509v3 Extended Key Usage: 
                TLS Web Client Authentication
            X509v3 Key Usage: 
                Digital Signature
    Signature Algorithm: sha256WithRSAEncryption
    Signature Value:
        c5:81:6f:b4:a5:3f:ec:fc:a9:f5:a2:4a:5c:1c:b2:cc:3b:9e:
        fe:96:76:16:cd:bc:f7:00:5b:8b:95:d4:7b:d2:83:fc:d7:54:
        8e:dd:6a:80:09:ee:c0:76:13:10:29:ff:c8:7d:00:39:18:fb:
        3e:32:d2:47:6e:7d:9d:29:f1:54:6c:72:29:bb:ea:c1:a3:1d:
        37:a5:20:ee:65:96:50:93:09:1d:42:ba:b9:77:8f:f7:8c:a0:
        40:3f:9e:f5:f5:72:f9:c4:d3:30:85:93:ab:b1:5c:39:f0:6b:
        9f:87:e5:cc:4d:08:06:1f:6e:2c:f9:02:64:af:ac:a4:68:20:
        67:ad:24:b8:4f:e4:aa:d8:2d:ac:db:6d:21:84:f9:5f:3f:1f:
        08:19:58:b6:bd:4e:a2:d7:23:05:78:c2:ed:35:7d:c0:90:3c:
        83:e8:09:e1:14:c9:80:cc:0f:37:a3:1c:c6:68:1b:d8:17:40:
        de:f6:4f:5c:65:e4:49:c9:ea:a9:23:7c:bb:8f:dd:32:0d:5a:
        ff:00:0f:64:5a:43:f2:82:e3:9d:8c:ce:05:89:e3:13:64:31:
        88:9e:60:97:4d:af:ca:77:cc:88:4d:2c:89:a1:8b:51:ef:25:
        a5:32:0d:02:29:81:3e:15:bd:0b:ec:4b:5d:37:97:47:0f:3a:
        70:4a:6b:a1
-----BEGIN CERTIFICATE-----
MIIDYTCCAkmgAwIBAgIRAM8wPmJ5VOyjlyexducXQ48wDQYJKoZIhvcNAQELBQAw
GzEZMBcGA1UEAwwQRWFzeUNvbmZpZ1Byby1DQTAeFw0yNjAyMTQxOTIxMDZaFw0y
ODA1MTkxOTIxMDZaMBMxETAPBgNVBAMMCHBlbHVtb2RpMIIBIjANBgkqhkiG9w0B
AQEFAAOCAQ8AMIIBCgKCAQEAv+G/b3sKAzENOfn+ZAGAV6GnNSebToiyqSrsEAce
XOan1oXBTC9Ly6DXW9/cg6BTP3F8f//fB8+Jr+nWhW81Z+UKdNUJmM3kSR8Q0y9B
AuZ6acP7D2V4cfKE265AOSJfBYbpNopVoEe/jfgiONskDyzmHe2Ei8biPc/u2yYb
jVdGKzQL2stqKyB9rtjdMqKabBSjbViNoo2OJhty9CzvU5h5A/sYvvSZgtM0X5Je
QSYYWe56Gg2mG6PA2dEsWGknLpSIVsZFkboPKmIiEGbCg+RZHFPKzsHCe9iOwl+Y
Yly3CuOnAKJ7SMGBYri5CLMNmUKHu7q9n4diA4jgwN6u5wIDAQABo4GnMIGkMAkG
A1UdEwQCMAAwHQYDVR0OBBYEFN2TkeS5knK0Q/alH8ZZnbcTLGK1MFYGA1UdIwRP
ME2AFM6kcFa6U2QVHo9O0i2LEsU+vBI2oR+kHTAbMRkwFwYDVQQDDBBFYXN5Q29u
ZmlnUHJvLUNBghQ/0skBOTGRTjiK4P4gA9YXVaWP7DATBgNVHSUEDDAKBggrBgEF
BQcDAjALBgNVHQ8EBAMCB4AwDQYJKoZIhvcNAQELBQADggEBAMWBb7SlP+z8qfWi
Slwcssw7nv6WdhbNvPcAW4uV1HvSg/zXVI7daoAJ7sB2ExAp/8h9ADkY+z4y0kdu
fZ0p8VRscim76sGjHTelIO5lllCTCR1Curl3j/eMoEA/nvX1cvnE0zCFk6uxXDnw
a5+H5cxNCAYfbiz5AmSvrKRoIGetJLhP5KrYLazbbSGE+V8/HwgZWLa9TqLXIwV4
wu01fcCQPIPoCeEUyYDMDzejHMZoG9gXQN72T1xl5EnJ6qkjfLuP3TINWv8AD2Ra
Q/KC452MzgWJ4xNkMYieYJdNr8p3zIhNLImhi1HvJaUyDQIpgT4VvQvsS103l0cP
OnBKa6E=
-----END CERTIFICATE-----
